; ModuleID = '35/839.c'
source_filename = "35/839.c"
target datalayout = "e-m:e-p270:32:32-p271:32:32-p272:64:64-i64:64-f80:128-n8:16:32:64-S128"
target triple = "x86_64-pc-linux-gnu"

@.str = private unnamed_addr constant [6 x i8] c"%d,%d\00", align 1
@.str.1 = private unnamed_addr constant [3 x i8] c"%d\00", align 1
@.str.2 = private unnamed_addr constant [6 x i8] c"%d+%d\00", align 1
@.str.3 = private unnamed_addr constant [3 x i8] c"No\00", align 1

; Function Attrs: noinline nounwind uwtable
define dso_local void @main() #0 {
  %1 = alloca i32, align 4
  %2 = alloca i32, align 4
  %3 = alloca i32, align 4
  %4 = alloca i32, align 4
  %5 = alloca i32, align 4
  %6 = alloca i32, align 4
  %7 = alloca [8 x [8 x i32]], align 16
  %8 = alloca [8 x [8 x i32]], align 16
  store i32 0, i32* %6, align 4
  %9 = bitcast [8 x [8 x i32]]* %8 to i8*
  call void @llvm.memset.p0i8.i64(i8* align 16 %9, i8 0, i64 256, i1 false)
  %10 = call i32 (i8*, ...) @__isoc99_scanf(i8* getelementptr inbounds ([6 x i8], [6 x i8]* @.str, i64 0, i64 0), i32* %1, i32* %5)
  store i32 0, i32* %2, align 4
  br label %11

11:                                               ; preds = %32, %0
  %12 = load i32, i32* %2, align 4
  %13 = load i32, i32* %1, align 4
  %14 = icmp slt i32 %12, %13
  br i1 %14, label %15, label %35

15:                                               ; preds = %11
  store i32 0, i32* %3, align 4
  br label %16

16:                                               ; preds = %28, %15
  %17 = load i32, i32* %3, align 4
  %18 = load i32, i32* %5, align 4
  %19 = icmp slt i32 %17, %18
  br i1 %19, label %20, label %31

20:                                               ; preds = %16
  %21 = load i32, i32* %2, align 4
  %22 = sext i32 %21 to i64
  %23 = getelementptr inbounds [8 x [8 x i32]], [8 x [8 x i32]]* %7, i64 0, i64 %22
  %24 = load i32, i32* %3, align 4
  %25 = sext i32 %24 to i64
  %26 = getelementptr inbounds [8 x i32], [8 x i32]* %23, i64 0, i64 %25
  %27 = call i32 (i8*, ...) @__isoc99_scanf(i8* getelementptr inbounds ([3 x i8], [3 x i8]* @.str.1, i64 0, i64 0), i32* %26)
  br label %28

28:                                               ; preds = %20
  %29 = load i32, i32* %3, align 4
  %30 = add nsw i32 %29, 1
  store i32 %30, i32* %3, align 4
  br label %16

31:                                               ; preds = %16
  br label %32

32:                                               ; preds = %31
  %33 = load i32, i32* %2, align 4
  %34 = add nsw i32 %33, 1
  store i32 %34, i32* %2, align 4
  br label %11

35:                                               ; preds = %11
  store i32 0, i32* %2, align 4
  br label %36

36:                                               ; preds = %118, %35
  %37 = load i32, i32* %2, align 4
  %38 = load i32, i32* %1, align 4
  %39 = icmp slt i32 %37, %38
  br i1 %39, label %40, label %121

40:                                               ; preds = %36
  store i32 0, i32* %3, align 4
  br label %41

41:                                               ; preds = %114, %40
  %42 = load i32, i32* %3, align 4
  %43 = load i32, i32* %5, align 4
  %44 = icmp slt i32 %42, %43
  br i1 %44, label %45, label %117

45:                                               ; preds = %41
  store i32 0, i32* %4, align 4
  br label %46

46:                                               ; preds = %76, %45
  %47 = load i32, i32* %4, align 4
  %48 = load i32, i32* %5, align 4
  %49 = icmp slt i32 %47, %48
  br i1 %49, label %50, label %79

50:                                               ; preds = %46
  %51 = load i32, i32* %2, align 4
  %52 = sext i32 %51 to i64
  %53 = getelementptr inbounds [8 x [8 x i32]], [8 x [8 x i32]]* %7, i64 0, i64 %52
  %54 = load i32, i32* %3, align 4
  %55 = sext i32 %54 to i64
  %56 = getelementptr inbounds [8 x i32], [8 x i32]* %53, i64 0, i64 %55
  %57 = load i32, i32* %56, align 4
  %58 = load i32, i32* %2, align 4
  %59 = sext i32 %58 to i64
  %60 = getelementptr inbounds [8 x [8 x i32]], [8 x [8 x i32]]* %7, i64 0, i64 %59
  %61 = load i32, i32* %4, align 4
  %62 = sext i32 %61 to i64
  %63 = getelementptr inbounds [8 x i32], [8 x i32]* %60, i64 0, i64 %62
  %64 = load i32, i32* %63, align 4
  %65 = icmp sge i32 %57, %64
  br i1 %65, label %66, label %75

66:                                               ; preds = %50
  %67 = load i32, i32* %2, align 4
  %68 = sext i32 %67 to i64
  %69 = getelementptr inbounds [8 x [8 x i32]], [8 x [8 x i32]]* %8, i64 0, i64 %68
  %70 = load i32, i32* %3, align 4
  %71 = sext i32 %70 to i64
  %72 = getelementptr inbounds [8 x i32], [8 x i32]* %69, i64 0, i64 %71
  %73 = load i32, i32* %72, align 4
  %74 = add nsw i32 %73, 1
  store i32 %74, i32* %72, align 4
  br label %75

75:                                               ; preds = %66, %50
  br label %76

76:                                               ; preds = %75
  %77 = load i32, i32* %4, align 4
  %78 = add nsw i32 %77, 1
  store i32 %78, i32* %4, align 4
  br label %46

79:                                               ; preds = %46
  store i32 0, i32* %4, align 4
  br label %80

80:                                               ; preds = %110, %79
  %81 = load i32, i32* %4, align 4
  %82 = load i32, i32* %1, align 4
  %83 = icmp slt i32 %81, %82
  br i1 %83, label %84, label %113

84:                                               ; preds = %80
  %85 = load i32, i32* %2, align 4
  %86 = sext i32 %85 to i64
  %87 = getelementptr inbounds [8 x [8 x i32]], [8 x [8 x i32]]* %7, i64 0, i64 %86
  %88 = load i32, i32* %3, align 4
  %89 = sext i32 %88 to i64
  %90 = getelementptr inbounds [8 x i32], [8 x i32]* %87, i64 0, i64 %89
  %91 = load i32, i32* %90, align 4
  %92 = load i32, i32* %4, align 4
  %93 = sext i32 %92 to i64
  %94 = getelementptr inbounds [8 x [8 x i32]], [8 x [8 x i32]]* %7, i64 0, i64 %93
  %95 = load i32, i32* %3, align 4
  %96 = sext i32 %95 to i64
  %97 = getelementptr inbounds [8 x i32], [8 x i32]* %94, i64 0, i64 %96
  %98 = load i32, i32* %97, align 4
  %99 = icmp sle i32 %91, %98
  br i1 %99, label %100, label %109

100:                                              ; preds = %84
  %101 = load i32, i32* %2, align 4
  %102 = sext i32 %101 to i64
  %103 = getelementptr inbounds [8 x [8 x i32]], [8 x [8 x i32]]* %8, i64 0, i64 %102
  %104 = load i32, i32* %3, align 4
  %105 = sext i32 %104 to i64
  %106 = getelementptr inbounds [8 x i32], [8 x i32]* %103, i64 0, i64 %105
  %107 = load i32, i32* %106, align 4
  %108 = add nsw i32 %107, 1
  store i32 %108, i32* %106, align 4
  br label %109

109:                                              ; preds = %100, %84
  br label %110

110:                                              ; preds = %109
  %111 = load i32, i32* %4, align 4
  %112 = add nsw i32 %111, 1
  store i32 %112, i32* %4, align 4
  br label %80

113:                                              ; preds = %80
  br label %114

114:                                              ; preds = %113
  %115 = load i32, i32* %3, align 4
  %116 = add nsw i32 %115, 1
  store i32 %116, i32* %3, align 4
  br label %41

117:                                              ; preds = %41
  br label %118

118:                                              ; preds = %117
  %119 = load i32, i32* %2, align 4
  %120 = add nsw i32 %119, 1
  store i32 %120, i32* %2, align 4
  br label %36

121:                                              ; preds = %36
  store i32 0, i32* %2, align 4
  br label %122

122:                                              ; preds = %155, %121
  %123 = load i32, i32* %2, align 4
  %124 = load i32, i32* %1, align 4
  %125 = icmp slt i32 %123, %124
  br i1 %125, label %126, label %158

126:                                              ; preds = %122
  store i32 0, i32* %3, align 4
  br label %127

127:                                              ; preds = %151, %126
  %128 = load i32, i32* %3, align 4
  %129 = load i32, i32* %5, align 4
  %130 = icmp slt i32 %128, %129
  br i1 %130, label %131, label %154

131:                                              ; preds = %127
  %132 = load i32, i32* %2, align 4
  %133 = sext i32 %132 to i64
  %134 = getelementptr inbounds [8 x [8 x i32]], [8 x [8 x i32]]* %8, i64 0, i64 %133
  %135 = load i32, i32* %3, align 4
  %136 = sext i32 %135 to i64
  %137 = getelementptr inbounds [8 x i32], [8 x i32]* %134, i64 0, i64 %136
  %138 = load i32, i32* %137, align 4
  %139 = load i32, i32* %1, align 4
  %140 = load i32, i32* %5, align 4
  %141 = add nsw i32 %139, %140
  %142 = icmp sge i32 %138, %141
  br i1 %142, label %143, label %149

143:                                              ; preds = %131
  %144 = load i32, i32* %6, align 4
  %145 = add nsw i32 %144, 1
  store i32 %145, i32* %6, align 4
  %146 = load i32, i32* %2, align 4
  %147 = load i32, i32* %3, align 4
  %148 = call i32 (i8*, ...) @printf(i8* getelementptr inbounds ([6 x i8], [6 x i8]* @.str.2, i64 0, i64 0), i32 %146, i32 %147)
  br label %150

149:                                              ; preds = %131
  br label %151

150:                                              ; preds = %143
  br label %151

151:                                              ; preds = %150, %149
  %152 = load i32, i32* %3, align 4
  %153 = add nsw i32 %152, 1
  store i32 %153, i32* %3, align 4
  br label %127

154:                                              ; preds = %127
  br label %155

155:                                              ; preds = %154
  %156 = load i32, i32* %2, align 4
  %157 = add nsw i32 %156, 1
  store i32 %157, i32* %2, align 4
  br label %122

158:                                              ; preds = %122
  %159 = load i32, i32* %6, align 4
  %160 = icmp eq i32 %159, 0
  br i1 %160, label %161, label %163

161:                                              ; preds = %158
  %162 = call i32 (i8*, ...) @printf(i8* getelementptr inbounds ([3 x i8], [3 x i8]* @.str.3, i64 0, i64 0))
  br label %163

163:                                              ; preds = %161, %158
  ret void
}

; Function Attrs: argmemonly nounwind willreturn
declare void @llvm.memset.p0i8.i64(i8* nocapture writeonly, i8, i64, i1 immarg) #1

declare dso_local i32 @__isoc99_scanf(i8*, ...) #2

declare dso_local i32 @printf(i8*, ...) #2


!llvm.module.flags = !{!0}
!llvm.ident = !{!1}

!0 = !{i32 1, !"wchar_size", i32 4}
!1 = !{!"clang version 10.0.0-4ubuntu1 "}
